target datalayout = "e-m:e-p270:32:32-p271:32:32-p272:64:64-i64:64-i128:128-f80:128-n8:16:32:64-S128"
target triple = "x86_64-pc-linux-gnu"

; Function Attrs: mustprogress nounwind uwtable
define internal noundef i64 @_ZL3subPmS_ml(ptr noundef %0, ptr noundef %1, i64 noundef %2, i64 noundef %3) #1 {
  %5 = alloca ptr, align 8
  %6 = alloca ptr, align 8
  %7 = alloca i64, align 8
  %8 = alloca i64, align 8
  %9 = alloca i64, align 8
  %10 = alloca i64, align 8
  %11 = alloca i64, align 8
  store ptr %0, ptr %5, align 8
  store ptr %1, ptr %6, align 8
  store i64 %2, ptr %7, align 8
  store i64 %3, ptr %8, align 8
  store i64 0, ptr %9, align 8
  %12 = load i64, ptr %8, align 8
  store i64 %12, ptr %10, align 8
  %13 = load i64, ptr %9, align 8
  %14 = load i64, ptr %10, align 8
  %15 = load ptr, ptr %5, align 8
  %16 = load ptr, ptr %6, align 8
  %17 = load i64, ptr %7, align 8
  %18 = call { i64, i64, i64 } asm sideeffect "clc; 0: ; mov ($4, $0, 8), $2; sbb $2, ($3, $0, 8); inc $0; dec $1; jne 0b; mov $5, $2; sbb $$0, $2; ", "=r,=r,=&r,r,r,r,0,1,~{memory},~{dirflag},~{fpsr},~{flags}"(ptr %15, ptr %16, i64 %17, i64 %13, i64 %14) #9, !srcloc !69
  %19 = extractvalue { i64, i64, i64 } %18, 0
  %20 = extractvalue { i64, i64, i64 } %18, 1
  %21 = extractvalue { i64, i64, i64 } %18, 2
  store i64 %19, ptr %9, align 8
  store i64 %20, ptr %10, align 8
  store i64 %21, ptr %11, align 8
  %22 = load i64, ptr %11, align 8
  ret i64 %22
}

; Function Attrs: mustprogress nounwind uwtable
define internal void @_ZL19montgomery_multiplyPmS_S_S_mi(ptr noundef %0, ptr noundef %1, ptr noundef %2, ptr noundef %3, i64 noundef %4, i32 noundef %5) #1 {
  %7 = alloca ptr, align 8
  %8 = alloca ptr, align 8
  %9 = alloca ptr, align 8
  %10 = alloca ptr, align 8
  %11 = alloca i64, align 8
  %12 = alloca i32, align 4
  %13 = alloca i64, align 8
  %14 = alloca i64, align 8
  %15 = alloca i64, align 8
  %16 = alloca i32, align 4
  %17 = alloca i32, align 4
  %18 = alloca i64, align 8
  %19 = alloca i64, align 8
  %20 = alloca i64, align 8
  %21 = alloca i64, align 8
  %22 = alloca i64, align 8
  %23 = alloca i64, align 8
  %24 = alloca i64, align 8
  %25 = alloca i64, align 8
  %26 = alloca i32, align 4
  %27 = alloca i64, align 8
  %28 = alloca i64, align 8
  %29 = alloca i64, align 8
  %30 = alloca i64, align 8
  store ptr %0, ptr %7, align 8
  store ptr %1, ptr %8, align 8
  store ptr %2, ptr %9, align 8
  store ptr %3, ptr %10, align 8
  store i64 %4, ptr %11, align 8
  store i32 %5, ptr %12, align 4
  store i64 0, ptr %13, align 8
  store i64 0, ptr %14, align 8
  store i64 0, ptr %15, align 8
  store i32 0, ptr %16, align 4
  br label %31

31:                                               ; preds = %134, %6
  %32 = load i32, ptr %16, align 4
  %33 = load i32, ptr %12, align 4
  %34 = icmp slt i32 %32, %33
  br i1 %34, label %35, label %137

35:                                               ; preds = %31
  store i32 0, ptr %17, align 4
  br label %36

36:                                               ; preds = %85, %35
  %37 = load i32, ptr %17, align 4
  %38 = load i32, ptr %16, align 4
  %39 = icmp slt i32 %37, %38
  br i1 %39, label %40, label %88

40:                                               ; preds = %36
  br label %41

41:                                               ; preds = %40
  %42 = load i64, ptr %13, align 8
  %43 = load i64, ptr %14, align 8
  %44 = load i64, ptr %15, align 8
  %45 = load ptr, ptr %7, align 8
  %46 = load i32, ptr %17, align 4
  %47 = sext i32 %46 to i64
  %48 = getelementptr inbounds i64, ptr %45, i64 %47
  %49 = load i64, ptr %48, align 8
  %50 = load ptr, ptr %8, align 8
  %51 = load i32, ptr %16, align 4
  %52 = load i32, ptr %17, align 4
  %53 = sub nsw i32 %51, %52
  %54 = sext i32 %53 to i64
  %55 = getelementptr inbounds i64, ptr %50, i64 %54
  %56 = load i64, ptr %55, align 8
  %57 = call { i64, i64, i64, i64 } asm "mul $5; add %rax, $2; adc %rdx, $3; adc $$0, $4", "=&{dx},={ax},=r,=r,=*imr,r,{ax},2,3,4,~{cc},~{dirflag},~{fpsr},~{flags}"(ptr elementtype(i64) %15, i64 %49, i64 %56, i64 %42, i64 %43, i64 %44) #9, !srcloc !38
  %58 = extractvalue { i64, i64, i64, i64 } %57, 0
  %59 = extractvalue { i64, i64, i64, i64 } %57, 1
  %60 = extractvalue { i64, i64, i64, i64 } %57, 2
  %61 = extractvalue { i64, i64, i64, i64 } %57, 3
  store i64 %58, ptr %18, align 8
  store i64 %59, ptr %19, align 8
  store i64 %60, ptr %13, align 8
  store i64 %61, ptr %14, align 8
  br label %62

62:                                               ; preds = %41
  br label %63

63:                                               ; preds = %62
  %64 = load i64, ptr %13, align 8
  %65 = load i64, ptr %14, align 8
  %66 = load i64, ptr %15, align 8
  %67 = load ptr, ptr %10, align 8
  %68 = load i32, ptr %17, align 4
  %69 = sext i32 %68 to i64
  %70 = getelementptr inbounds i64, ptr %67, i64 %69
  %71 = load i64, ptr %70, align 8
  %72 = load ptr, ptr %9, align 8
  %73 = load i32, ptr %16, align 4
  %74 = load i32, ptr %17, align 4
  %75 = sub nsw i32 %73, %74
  %76 = sext i32 %75 to i64
  %77 = getelementptr inbounds i64, ptr %72, i64 %76
  %78 = load i64, ptr %77, align 8
  %79 = call { i64, i64, i64, i64 } asm "mul $5; add %rax, $2; adc %rdx, $3; adc $$0, $4", "=&{dx},={ax},=r,=r,=*imr,r,{ax},2,3,4,~{cc},~{dirflag},~{fpsr},~{flags}"(ptr elementtype(i64) %15, i64 %71, i64 %78, i64 %64, i64 %65, i64 %66) #9, !srcloc !39
  %80 = extractvalue { i64, i64, i64, i64 } %79, 0
  %81 = extractvalue { i64, i64, i64, i64 } %79, 1
  %82 = extractvalue { i64, i64, i64, i64 } %79, 2
  %83 = extractvalue { i64, i64, i64, i64 } %79, 3
  store i64 %80, ptr %20, align 8
  store i64 %81, ptr %21, align 8
  store i64 %82, ptr %13, align 8
  store i64 %83, ptr %14, align 8
  br label %84

84:                                               ; preds = %63
  br label %85

85:                                               ; preds = %84
  %86 = load i32, ptr %17, align 4
  %87 = add nsw i32 %86, 1
  store i32 %87, ptr %17, align 4
  br label %36, !llvm.loop !40

88:                                               ; preds = %36
  br label %89

89:                                               ; preds = %88
  %90 = load i64, ptr %13, align 8
  %91 = load i64, ptr %14, align 8
  %92 = load i64, ptr %15, align 8
  %93 = load ptr, ptr %7, align 8
  %94 = load i32, ptr %16, align 4
  %95 = sext i32 %94 to i64
  %96 = getelementptr inbounds i64, ptr %93, i64 %95
  %97 = load i64, ptr %96, align 8
  %98 = load ptr, ptr %8, align 8
  %99 = getelementptr inbounds i64, ptr %98, i64 0
  %100 = load i64, ptr %99, align 8
  %101 = call { i64, i64, i64, i64 } asm "mul $5; add %rax, $2; adc %rdx, $3; adc $$0, $4", "=&{dx},={ax},=r,=r,=*imr,r,{ax},2,3,4,~{cc},~{dirflag},~{fpsr},~{flags}"(ptr elementtype(i64) %15, i64 %97, i64 %100, i64 %90, i64 %91, i64 %92) #9, !srcloc !41
  %102 = extractvalue { i64, i64, i64, i64 } %101, 0
  %103 = extractvalue { i64, i64, i64, i64 } %101, 1
  %104 = extractvalue { i64, i64, i64, i64 } %101, 2
  %105 = extractvalue { i64, i64, i64, i64 } %101, 3
  store i64 %102, ptr %22, align 8
  store i64 %103, ptr %23, align 8
  store i64 %104, ptr %13, align 8
  store i64 %105, ptr %14, align 8
  br label %106

106:                                              ; preds = %89
  %107 = load i64, ptr %13, align 8
  %108 = load i64, ptr %11, align 8
  %109 = mul i64 %107, %108
  %110 = load ptr, ptr %10, align 8
  %111 = load i32, ptr %16, align 4
  %112 = sext i32 %111 to i64
  %113 = getelementptr inbounds i64, ptr %110, i64 %112
  store i64 %109, ptr %113, align 8
  br label %114

114:                                              ; preds = %106
  %115 = load i64, ptr %13, align 8
  %116 = load i64, ptr %14, align 8
  %117 = load i64, ptr %15, align 8
  %118 = load ptr, ptr %10, align 8
  %119 = load i32, ptr %16, align 4
  %120 = sext i32 %119 to i64
  %121 = getelementptr inbounds i64, ptr %118, i64 %120
  %122 = load i64, ptr %121, align 8
  %123 = load ptr, ptr %9, align 8
  %124 = getelementptr inbounds i64, ptr %123, i64 0
  %125 = load i64, ptr %124, align 8
  %126 = call { i64, i64, i64, i64 } asm "mul $5; add %rax, $2; adc %rdx, $3; adc $$0, $4", "=&{dx},={ax},=r,=r,=*imr,r,{ax},2,3,4,~{cc},~{dirflag},~{fpsr},~{flags}"(ptr elementtype(i64) %15, i64 %122, i64 %125, i64 %115, i64 %116, i64 %117) #9, !srcloc !42
  %127 = extractvalue { i64, i64, i64, i64 } %126, 0
  %128 = extractvalue { i64, i64, i64, i64 } %126, 1
  %129 = extractvalue { i64, i64, i64, i64 } %126, 2
  %130 = extractvalue { i64, i64, i64, i64 } %126, 3
  store i64 %127, ptr %24, align 8
  store i64 %128, ptr %25, align 8
  store i64 %129, ptr %13, align 8
  store i64 %130, ptr %14, align 8
  br label %131

131:                                              ; preds = %114
  %132 = load i64, ptr %14, align 8
  store i64 %132, ptr %13, align 8
  %133 = load i64, ptr %15, align 8
  store i64 %133, ptr %14, align 8
  store i64 0, ptr %15, align 8
  br label %134

134:                                              ; preds = %131
  %135 = load i32, ptr %16, align 4
  %136 = add nsw i32 %135, 1
  store i32 %136, ptr %16, align 4
  br label %31, !llvm.loop !43

137:                                              ; preds = %31
  %138 = load i32, ptr %12, align 4
  store i32 %138, ptr %16, align 4
  br label %139

139:                                              ; preds = %211, %137
  %140 = load i32, ptr %16, align 4
  %141 = load i32, ptr %12, align 4
  %142 = mul nsw i32 2, %141
  %143 = icmp slt i32 %140, %142
  br i1 %143, label %144, label %214

144:                                              ; preds = %139
  %145 = load i32, ptr %16, align 4
  %146 = load i32, ptr %12, align 4
  %147 = sub nsw i32 %145, %146
  %148 = add nsw i32 %147, 1
  store i32 %148, ptr %26, align 4
  br label %149

149:                                              ; preds = %198, %144
  %150 = load i32, ptr %26, align 4
  %151 = load i32, ptr %12, align 4
  %152 = icmp slt i32 %150, %151
  br i1 %152, label %153, label %201

153:                                              ; preds = %149
  br label %154

154:                                              ; preds = %153
  %155 = load i64, ptr %13, align 8
  %156 = load i64, ptr %14, align 8
  %157 = load i64, ptr %15, align 8
  %158 = load ptr, ptr %7, align 8
  %159 = load i32, ptr %26, align 4
  %160 = sext i32 %159 to i64
  %161 = getelementptr inbounds i64, ptr %158, i64 %160
  %162 = load i64, ptr %161, align 8
  %163 = load ptr, ptr %8, align 8
  %164 = load i32, ptr %16, align 4
  %165 = load i32, ptr %26, align 4
  %166 = sub nsw i32 %164, %165
  %167 = sext i32 %166 to i64
  %168 = getelementptr inbounds i64, ptr %163, i64 %167
  %169 = load i64, ptr %168, align 8
  %170 = call { i64, i64, i64, i64 } asm "mul $5; add %rax, $2; adc %rdx, $3; adc $$0, $4", "=&{dx},={ax},=r,=r,=*imr,r,{ax},2,3,4,~{cc},~{dirflag},~{fpsr},~{flags}"(ptr elementtype(i64) %15, i64 %162, i64 %169, i64 %155, i64 %156, i64 %157) #9, !srcloc !44
  %171 = extractvalue { i64, i64, i64, i64 } %170, 0
  %172 = extractvalue { i64, i64, i64, i64 } %170, 1
  %173 = extractvalue { i64, i64, i64, i64 } %170, 2
  %174 = extractvalue { i64, i64, i64, i64 } %170, 3
  store i64 %171, ptr %27, align 8
  store i64 %172, ptr %28, align 8
  store i64 %173, ptr %13, align 8
  store i64 %174, ptr %14, align 8
  br label %175

175:                                              ; preds = %154
  br label %176

176:                                              ; preds = %175
  %177 = load i64, ptr %13, align 8
  %178 = load i64, ptr %14, align 8
  %179 = load i64, ptr %15, align 8
  %180 = load ptr, ptr %10, align 8
  %181 = load i32, ptr %26, align 4
  %182 = sext i32 %181 to i64
  %183 = getelementptr inbounds i64, ptr %180, i64 %182
  %184 = load i64, ptr %183, align 8
  %185 = load ptr, ptr %9, align 8
  %186 = load i32, ptr %16, align 4
  %187 = load i32, ptr %26, align 4
  %188 = sub nsw i32 %186, %187
  %189 = sext i32 %188 to i64
  %190 = getelementptr inbounds i64, ptr %185, i64 %189
  %191 = load i64, ptr %190, align 8
  %192 = call { i64, i64, i64, i64 } asm "mul $5; add %rax, $2; adc %rdx, $3; adc $$0, $4", "=&{dx},={ax},=r,=r,=*imr,r,{ax},2,3,4,~{cc},~{dirflag},~{fpsr},~{flags}"(ptr elementtype(i64) %15, i64 %184, i64 %191, i64 %177, i64 %178, i64 %179) #9, !srcloc !45
  %193 = extractvalue { i64, i64, i64, i64 } %192, 0
  %194 = extractvalue { i64, i64, i64, i64 } %192, 1
  %195 = extractvalue { i64, i64, i64, i64 } %192, 2
  %196 = extractvalue { i64, i64, i64, i64 } %192, 3
  store i64 %193, ptr %29, align 8
  store i64 %194, ptr %30, align 8
  store i64 %195, ptr %13, align 8
  store i64 %196, ptr %14, align 8
  br label %197

197:                                              ; preds = %176
  br label %198

198:                                              ; preds = %197
  %199 = load i32, ptr %26, align 4
  %200 = add nsw i32 %199, 1
  store i32 %200, ptr %26, align 4
  br label %149, !llvm.loop !46

201:                                              ; preds = %149
  %202 = load i64, ptr %13, align 8
  %203 = load ptr, ptr %10, align 8
  %204 = load i32, ptr %16, align 4
  %205 = load i32, ptr %12, align 4
  %206 = sub nsw i32 %204, %205
  %207 = sext i32 %206 to i64
  %208 = getelementptr inbounds i64, ptr %203, i64 %207
  store i64 %202, ptr %208, align 8
  %209 = load i64, ptr %14, align 8
  store i64 %209, ptr %13, align 8
  %210 = load i64, ptr %15, align 8
  store i64 %210, ptr %14, align 8
  store i64 0, ptr %15, align 8
  br label %211

211:                                              ; preds = %201
  %212 = load i32, ptr %16, align 4
  %213 = add nsw i32 %212, 1
  store i32 %213, ptr %16, align 4
  br label %139, !llvm.loop !47

214:                                              ; preds = %139
  br label %215

215:                                              ; preds = %218, %214
  %216 = load i64, ptr %13, align 8
  %217 = icmp ne i64 %216, 0
  br i1 %217, label %218, label %225

218:                                              ; preds = %215
  %219 = load ptr, ptr %10, align 8
  %220 = load ptr, ptr %9, align 8
  %221 = load i64, ptr %13, align 8
  %222 = load i32, ptr %12, align 4
  %223 = sext i32 %222 to i64
  %224 = call noundef i64 @_ZL3subPmS_ml(ptr noundef %219, ptr noundef %220, i64 noundef %221, i64 noundef %223)
  store i64 %224, ptr %13, align 8
  br label %215, !llvm.loop !48

225:                                              ; preds = %215
  ret void
}