; Function Attrs: mustprogress nounwind uwtable
define internal fastcc void @_ZL19montgomery_multiplyPmS_S_S_mi(ptr nocapture noundef readonly %0, ptr nocapture noundef readonly %1, ptr noundef %2, ptr noundef %3, i64 noundef %4, i32 noundef %5) unnamed_addr #0 {
  %7 = alloca i64, align 8
  store i64 0, ptr %7, align 8
  %8 = icmp sgt i32 %5, 0
  br i1 %8, label %.preheader77.preheader, label %.preheader76

.preheader77.preheader:                           ; preds = %6
  %wide.trip.count115 = zext nneg i32 %5 to i64
  br label %.preheader77

.preheader77:                                     ; preds = %.preheader77.preheader, %._crit_edge
  %indvars.iv112 = phi i64 [ 0, %.preheader77.preheader ], [ %indvars.iv.next113, %._crit_edge ]
  %.084 = phi i64 [ 0, %.preheader77.preheader ], [ %41, %._crit_edge ]
  %.06783 = phi i64 [ 0, %.preheader77.preheader ], [ %42, %._crit_edge ]
  %.not105 = icmp eq i64 %indvars.iv112, 0
  br i1 %.not105, label %._crit_edge, label %.lr.ph

.preheader76:                                     ; preds = %._crit_edge, %6
  %.067.lcssa = phi i64 [ 0, %6 ], [ %42, %._crit_edge ]
  %.0.lcssa = phi i64 [ 0, %6 ], [ %41, %._crit_edge ]
  %9 = shl nsw i32 %5, 1
  %10 = icmp sgt i32 %9, %5
  br i1 %10, label %.lr.ph99.preheader, label %.preheader

.lr.ph99.preheader:                               ; preds = %.preheader76
  %11 = sext i32 %5 to i64
  %invariant.op = add nsw i64 %11, -1
  br label %.lr.ph99

.lr.ph:                                           ; preds = %.preheader77, %.lr.ph
  %indvars.iv = phi i64 [ %indvars.iv.next, %.lr.ph ], [ 0, %.preheader77 ]
  %.180 = phi i64 [ %27, %.lr.ph ], [ %.084, %.preheader77 ]
  %.16879 = phi i64 [ %28, %.lr.ph ], [ %.06783, %.preheader77 ]
  %12 = load i64, ptr %7, align 8
  %13 = getelementptr inbounds i64, ptr %0, i64 %indvars.iv
  %14 = load i64, ptr %13, align 8
  %15 = sub nsw i64 %indvars.iv112, %indvars.iv
  %16 = getelementptr inbounds i64, ptr %1, i64 %15
  %17 = load i64, ptr %16, align 8
  %18 = call { i64, i64, i64, i64 } asm "mul $5; add %rax, $2; adc %rdx, $3; adc $$0, $4", "=&{dx},={ax},=r,=r,=*imr,r,{ax},2,3,4,~{cc},~{dirflag},~{fpsr},~{flags}"(ptr nonnull elementtype(i64) %7, i64 %14, i64 %17, i64 %.180, i64 %.16879, i64 %12) #14, !srcloc !39
  %19 = extractvalue { i64, i64, i64, i64 } %18, 2
  %20 = extractvalue { i64, i64, i64, i64 } %18, 3
  %21 = load i64, ptr %7, align 8
  %22 = getelementptr inbounds i64, ptr %3, i64 %indvars.iv
  %23 = load i64, ptr %22, align 8
  %24 = getelementptr inbounds i64, ptr %2, i64 %15
  %25 = load i64, ptr %24, align 8
  %26 = call { i64, i64, i64, i64 } asm "mul $5; add %rax, $2; adc %rdx, $3; adc $$0, $4", "=&{dx},={ax},=r,=r,=*imr,r,{ax},2,3,4,~{cc},~{dirflag},~{fpsr},~{flags}"(ptr nonnull elementtype(i64) %7, i64 %23, i64 %25, i64 %19, i64 %20, i64 %21) #14, !srcloc !40
  %27 = extractvalue { i64, i64, i64, i64 } %26, 2
  %28 = extractvalue { i64, i64, i64, i64 } %26, 3
  %indvars.iv.next = add nuw nsw i64 %indvars.iv, 1
  %exitcond.not = icmp eq i64 %indvars.iv.next, %indvars.iv112
  br i1 %exitcond.not, label %._crit_edge.loopexit, label %.lr.ph, !llvm.loop !41

._crit_edge.loopexit:                             ; preds = %.lr.ph
  %.pre = load i64, ptr %7, align 8
  br label %._crit_edge

._crit_edge:                                      ; preds = %._crit_edge.loopexit, %.preheader77
  %29 = phi i64 [ 0, %.preheader77 ], [ %.pre, %._crit_edge.loopexit ]
  %.168.lcssa = phi i64 [ %.06783, %.preheader77 ], [ %28, %._crit_edge.loopexit ]
  %.1.lcssa = phi i64 [ %.084, %.preheader77 ], [ %27, %._crit_edge.loopexit ]
  %30 = getelementptr inbounds i64, ptr %0, i64 %indvars.iv112
  %31 = load i64, ptr %30, align 8
  %32 = load i64, ptr %1, align 8
  %33 = call { i64, i64, i64, i64 } asm "mul $5; add %rax, $2; adc %rdx, $3; adc $$0, $4", "=&{dx},={ax},=r,=r,=*imr,r,{ax},2,3,4,~{cc},~{dirflag},~{fpsr},~{flags}"(ptr nonnull elementtype(i64) %7, i64 %31, i64 %32, i64 %.1.lcssa, i64 %.168.lcssa, i64 %29) #14, !srcloc !42
  %34 = extractvalue { i64, i64, i64, i64 } %33, 2
  %35 = extractvalue { i64, i64, i64, i64 } %33, 3
  %36 = mul i64 %34, %4
  %37 = getelementptr inbounds i64, ptr %3, i64 %indvars.iv112
  store i64 %36, ptr %37, align 8
  %38 = load i64, ptr %7, align 8
  %39 = load i64, ptr %2, align 8
  %40 = call { i64, i64, i64, i64 } asm "mul $5; add %rax, $2; adc %rdx, $3; adc $$0, $4", "=&{dx},={ax},=r,=r,=*imr,r,{ax},2,3,4,~{cc},~{dirflag},~{fpsr},~{flags}"(ptr nonnull elementtype(i64) %7, i64 %36, i64 %39, i64 %34, i64 %35, i64 %38) #14, !srcloc !43
  %41 = extractvalue { i64, i64, i64, i64 } %40, 3
  %42 = load i64, ptr %7, align 8
  store i64 0, ptr %7, align 8
  %indvars.iv.next113 = add nuw nsw i64 %indvars.iv112, 1
  %exitcond116.not = icmp eq i64 %indvars.iv.next113, %wide.trip.count115
  br i1 %exitcond116.not, label %.preheader76, label %.preheader77, !llvm.loop !44

.preheader:                                       ; preds = %._crit_edge93, %.preheader76
  %.2.lcssa = phi i64 [ %.0.lcssa, %.preheader76 ], [ %.370.lcssa, %._crit_edge93 ]
  %.not101 = icmp eq i64 %.2.lcssa, 0
  br i1 %.not101, label %._crit_edge104, label %.lr.ph103

.lr.ph103:                                        ; preds = %.preheader
  %43 = sext i32 %5 to i64
  br label %66

.lr.ph99:                                         ; preds = %.lr.ph99.preheader, %._crit_edge93
  %indvars.iv123 = phi i64 [ %11, %.lr.ph99.preheader ], [ %indvars.iv.next124, %._crit_edge93 ]
  %indvars.iv117 = phi i32 [ 1, %.lr.ph99.preheader ], [ %indvars.iv.next118, %._crit_edge93 ]
  %.298 = phi i64 [ %.0.lcssa, %.lr.ph99.preheader ], [ %.370.lcssa, %._crit_edge93 ]
  %.26997 = phi i64 [ %.067.lcssa, %.lr.ph99.preheader ], [ %64, %._crit_edge93 ]
  %44 = sub nsw i64 %indvars.iv123, %11
  %45 = icmp slt i64 %44, %invariant.op
  br i1 %45, label %.lr.ph92.preheader, label %._crit_edge93

.lr.ph92.preheader:                               ; preds = %.lr.ph99
  %46 = sext i32 %indvars.iv117 to i64
  br label %.lr.ph92

.lr.ph92:                                         ; preds = %.lr.ph92.preheader, %.lr.ph92
  %indvars.iv119 = phi i64 [ %46, %.lr.ph92.preheader ], [ %indvars.iv.next120, %.lr.ph92 ]
  %.389 = phi i64 [ %.298, %.lr.ph92.preheader ], [ %62, %.lr.ph92 ]
  %.37088 = phi i64 [ %.26997, %.lr.ph92.preheader ], [ %63, %.lr.ph92 ]
  %47 = load i64, ptr %7, align 8
  %48 = getelementptr inbounds i64, ptr %0, i64 %indvars.iv119
  %49 = load i64, ptr %48, align 8
  %50 = sub nsw i64 %indvars.iv123, %indvars.iv119
  %51 = getelementptr inbounds i64, ptr %1, i64 %50
  %52 = load i64, ptr %51, align 8
  %53 = call { i64, i64, i64, i64 } asm "mul $5; add %rax, $2; adc %rdx, $3; adc $$0, $4", "=&{dx},={ax},=r,=r,=*imr,r,{ax},2,3,4,~{cc},~{dirflag},~{fpsr},~{flags}"(ptr nonnull elementtype(i64) %7, i64 %49, i64 %52, i64 %.389, i64 %.37088, i64 %47) #14, !srcloc !45
  %54 = extractvalue { i64, i64, i64, i64 } %53, 2
  %55 = extractvalue { i64, i64, i64, i64 } %53, 3
  %56 = load i64, ptr %7, align 8
  %57 = getelementptr inbounds i64, ptr %3, i64 %indvars.iv119
  %58 = load i64, ptr %57, align 8
  %59 = getelementptr inbounds i64, ptr %2, i64 %50
  %60 = load i64, ptr %59, align 8
  %61 = call { i64, i64, i64, i64 } asm "mul $5; add %rax, $2; adc %rdx, $3; adc $$0, $4", "=&{dx},={ax},=r,=r,=*imr,r,{ax},2,3,4,~{cc},~{dirflag},~{fpsr},~{flags}"(ptr nonnull elementtype(i64) %7, i64 %58, i64 %60, i64 %54, i64 %55, i64 %56) #14, !srcloc !46
  %62 = extractvalue { i64, i64, i64, i64 } %61, 2
  %63 = extractvalue { i64, i64, i64, i64 } %61, 3
  %indvars.iv.next120 = add nsw i64 %indvars.iv119, 1
  %lftr.wideiv = trunc i64 %indvars.iv.next120 to i32
  %exitcond122.not = icmp eq i32 %lftr.wideiv, %5
  br i1 %exitcond122.not, label %._crit_edge93.loopexit, label %.lr.ph92, !llvm.loop !47

._crit_edge93.loopexit:                           ; preds = %.lr.ph92
  %.pre129 = load i64, ptr %7, align 8
  br label %._crit_edge93

._crit_edge93:                                    ; preds = %._crit_edge93.loopexit, %.lr.ph99
  %64 = phi i64 [ 0, %.lr.ph99 ], [ %.pre129, %._crit_edge93.loopexit ]
  %.370.lcssa = phi i64 [ %.26997, %.lr.ph99 ], [ %63, %._crit_edge93.loopexit ]
  %.3.lcssa = phi i64 [ %.298, %.lr.ph99 ], [ %62, %._crit_edge93.loopexit ]
  %65 = getelementptr inbounds i64, ptr %3, i64 %44
  store i64 %.3.lcssa, ptr %65, align 8
  store i64 0, ptr %7, align 8
  %indvars.iv.next124 = add nsw i64 %indvars.iv123, 1
  %indvars.iv.next118 = add i32 %indvars.iv117, 1
  %lftr.wideiv127 = trunc i64 %indvars.iv.next124 to i32
  %exitcond128.not = icmp eq i32 %9, %lftr.wideiv127
  br i1 %exitcond128.not, label %.preheader, label %.lr.ph99, !llvm.loop !48

66:                                               ; preds = %.lr.ph103, %66
  %.4102 = phi i64 [ %.2.lcssa, %.lr.ph103 ], [ %68, %66 ]
  %67 = call { i64, i64, i64 } asm sideeffect "clc; 0: ; mov ($4, $0, 8), $2; sbb $2, ($3, $0, 8); inc $0; dec $1; jne 0b; mov $5, $2; sbb $$0, $2; ", "=r,=r,=&r,r,r,r,0,1,~{memory},~{dirflag},~{fpsr},~{flags}"(ptr %3, ptr %2, i64 %.4102, i64 0, i64 %43) #14, !srcloc !49
  %68 = extractvalue { i64, i64, i64 } %67, 2
  %.not = icmp eq i64 %68, 0
  br i1 %.not, label %._crit_edge104, label %66, !llvm.loop !50

._crit_edge104:                                   ; preds = %66, %.preheader
  ret void
}